target datalayout = "e-m:e-p270:32:32-p271:32:32-p272:64:64-i64:64-i128:128-f80:128-n8:16:32:64-S128"
target triple = "x86_64-unknown-linux-gnu"

%"class.OpenImageIO_v2_6_0::Vec3Param" = type { float, float, float }
%"class.OpenImageIO_v2_6_0::ustring" = type { ptr }
%"class.Imath_2_5::Vec3" = type { float, float, float }
%"class.OpenImageIO_v2_6_0::TextureOpt" = type { i32, i32, %"class.OpenImageIO_v2_6_0::ustring", i32, i32, i32, i32, i32, i8, float, float, float, float, float, ptr, float, %union.anon.30, i32, i32, float, float, i32, i32 }
%union.anon.30 = type { float }
%"class.OpenImageIO_v2_6_0::VaryingRef" = type <{ ptr, i32, [4 x i8] }>

; Function Attrs: mustprogress nounwind uwtable
define linkonce_odr void @_ZN18OpenImageIO_v2_6_07ustringD2Ev(ptr noundef nonnull align 8 dereferenceable(8) %this) unnamed_addr #1 comdat align 2 {
entry:
  %this.addr = alloca ptr, align 8
  store ptr %this, ptr %this.addr, align 8
  ret void
}

; Function Attrs: mustprogress nounwind uwtable
define linkonce_odr void @_ZN18OpenImageIO_v2_6_010TextureOptD2Ev(ptr noundef nonnull align 8 dereferenceable(104) %this) unnamed_addr #1 comdat align 2 {
entry:
  %this.addr = alloca ptr, align 8
  store ptr %this, ptr %this.addr, align 8
  %this1 = load ptr, ptr %this.addr, align 8
  %subimagename = getelementptr inbounds %"class.OpenImageIO_v2_6_0::TextureOpt", ptr %this1, i32 0, i32 2
  call void @_ZN18OpenImageIO_v2_6_07ustringD2Ev(ptr noundef nonnull align 8 dereferenceable(8) %subimagename) #5
  ret void
}

; Function Attrs: mustprogress nounwind uwtable
define linkonce_odr hidden void @_ZN18OpenImageIO_v2_6_09Vec3ParamIfEC2IN9Imath_2_54Vec3IfEETnNSt9enable_ifIXsr7has_xyzIT_fEE5valueEiE4typeELi0EEERKS7_(ptr noundef nonnull align 4 dereferenceable(12) %this, ptr noundef nonnull align 4 dereferenceable(12) %v) unnamed_addr #1 comdat align 2 {
entry:
  %this.addr = alloca ptr, align 8
  %v.addr = alloca ptr, align 8
  store ptr %this, ptr %this.addr, align 8
  store ptr %v, ptr %v.addr, align 8
  %this1 = load ptr, ptr %this.addr, align 8
  %x = getelementptr inbounds %"class.OpenImageIO_v2_6_0::Vec3Param", ptr %this1, i32 0, i32 0
  %0 = load ptr, ptr %v.addr, align 8
  %x2 = getelementptr inbounds %"class.Imath_2_5::Vec3", ptr %0, i32 0, i32 0
  %1 = load float, ptr %x2, align 4
  store float %1, ptr %x, align 4
  %y = getelementptr inbounds %"class.OpenImageIO_v2_6_0::Vec3Param", ptr %this1, i32 0, i32 1
  %2 = load ptr, ptr %v.addr, align 8
  %y3 = getelementptr inbounds %"class.Imath_2_5::Vec3", ptr %2, i32 0, i32 1
  %3 = load float, ptr %y3, align 4
  store float %3, ptr %y, align 4
  %z = getelementptr inbounds %"class.OpenImageIO_v2_6_0::Vec3Param", ptr %this1, i32 0, i32 2
  %4 = load ptr, ptr %v.addr, align 8
  %z4 = getelementptr inbounds %"class.Imath_2_5::Vec3", ptr %4, i32 0, i32 2
  %5 = load float, ptr %z4, align 4
  store float %5, ptr %z, align 4
  ret void
}

; Function Attrs: mustprogress nounwind uwtable
define linkonce_odr hidden noundef nonnull align 4 dereferenceable(12) ptr @_ZNK18OpenImageIO_v2_6_010VaryingRefIN9Imath_2_54Vec3IfEEEixEi(ptr noundef nonnull align 8 dereferenceable(12) %this, i32 noundef %i) #1 comdat align 2 {
entry:
  %this.addr = alloca ptr, align 8
  %i.addr = alloca i32, align 4
  store ptr %this, ptr %this.addr, align 8
  store i32 %i, ptr %i.addr, align 4
  %this1 = load ptr, ptr %this.addr, align 8
  %m_ptr = getelementptr inbounds %"class.OpenImageIO_v2_6_0::VaryingRef", ptr %this1, i32 0, i32 0
  %0 = load ptr, ptr %m_ptr, align 8
  %1 = load i32, ptr %i.addr, align 4
  %m_step = getelementptr inbounds %"class.OpenImageIO_v2_6_0::VaryingRef", ptr %this1, i32 0, i32 1
  %2 = load i32, ptr %m_step, align 8
  %mul = mul nsw i32 %1, %2
  %idx.ext = sext i32 %mul to i64
  %add.ptr = getelementptr inbounds i8, ptr %0, i64 %idx.ext
  ret ptr %add.ptr
}

; Function Attrs: mustprogress uwtable
define hidden noundef zeroext i1 @_ZN18OpenImageIO_v2_6_03pvt17TextureSystemImpl9texture3dEPNS_13TextureSystem13TextureHandleEPNS2_9PerthreadERNS_14TextureOptionsEPhiiNS_10VaryingRefIN9Imath_2_54Vec3IfEEEESE_SE_SE_iPfSF_SF_SF_(ptr noundef nonnull align 8 dereferenceable(184) %this, ptr noundef %texture_handle, ptr noundef %thread_info, ptr noundef nonnull align 8 dereferenceable(224) %options, ptr noundef %runflags, i32 noundef %beginactive, i32 noundef %endactive, ptr noundef byval(%"class.OpenImageIO_v2_6_0::VaryingRef") align 8 %P, ptr noundef byval(%"class.OpenImageIO_v2_6_0::VaryingRef") align 8 %dPdx, ptr noundef byval(%"class.OpenImageIO_v2_6_0::VaryingRef") align 8 %dPdy, ptr noundef byval(%"class.OpenImageIO_v2_6_0::VaryingRef") align 8 %dPdz, i32 noundef %nchannels, ptr noundef %result, ptr noundef %dresultds, ptr noundef %dresultdt, ptr noundef %dresultdr) unnamed_addr #6 align 2 personality ptr @__gxx_personality_v0 {
entry:
  %this.addr = alloca ptr, align 8
  %texture_handle.addr = alloca ptr, align 8
  %thread_info.addr = alloca ptr, align 8
  %options.addr = alloca ptr, align 8
  %runflags.addr = alloca ptr, align 8
  %beginactive.addr = alloca i32, align 4
  %endactive.addr = alloca i32, align 4
  %nchannels.addr = alloca i32, align 4
  %result.addr = alloca ptr, align 8
  %dresultds.addr = alloca ptr, align 8
  %dresultdt.addr = alloca ptr, align 8
  %dresultdr.addr = alloca ptr, align 8
  %ok = alloca i8, align 1
  %i = alloca i32, align 4
  %opt = alloca %"class.OpenImageIO_v2_6_0::TextureOpt", align 8
  %agg.tmp = alloca %"class.OpenImageIO_v2_6_0::Vec3Param", align 4
  %exn.slot = alloca ptr, align 8
  %ehselector.slot = alloca i32, align 4
  %agg.tmp10 = alloca %"class.OpenImageIO_v2_6_0::Vec3Param", align 4
  %agg.tmp13 = alloca %"class.OpenImageIO_v2_6_0::Vec3Param", align 4
  %agg.tmp16 = alloca %"class.OpenImageIO_v2_6_0::Vec3Param", align 4
  %agg.tmp.coerce = alloca { <2 x float>, float }, align 4
  %agg.tmp10.coerce = alloca { <2 x float>, float }, align 4
  %agg.tmp13.coerce = alloca { <2 x float>, float }, align 4
  %agg.tmp16.coerce = alloca { <2 x float>, float }, align 4
  store ptr %this, ptr %this.addr, align 8
  store ptr %texture_handle, ptr %texture_handle.addr, align 8
  store ptr %thread_info, ptr %thread_info.addr, align 8
  store ptr %options, ptr %options.addr, align 8
  store ptr %runflags, ptr %runflags.addr, align 8
  store i32 %beginactive, ptr %beginactive.addr, align 4
  store i32 %endactive, ptr %endactive.addr, align 4
  store i32 %nchannels, ptr %nchannels.addr, align 4
  store ptr %result, ptr %result.addr, align 8
  store ptr %dresultds, ptr %dresultds.addr, align 8
  store ptr %dresultdt, ptr %dresultdt.addr, align 8
  store ptr %dresultdr, ptr %dresultdr.addr, align 8
  %this1 = load ptr, ptr %this.addr, align 8
  store i8 1, ptr %ok, align 1
  %0 = load i32, ptr %beginactive.addr, align 4
  %1 = load i32, ptr %nchannels.addr, align 4
  %mul = mul nsw i32 %0, %1
  %2 = load ptr, ptr %result.addr, align 8
  %idx.ext = sext i32 %mul to i64
  %add.ptr = getelementptr inbounds float, ptr %2, i64 %idx.ext
  store ptr %add.ptr, ptr %result.addr, align 8
  %3 = load ptr, ptr %dresultds.addr, align 8
  %tobool = icmp ne ptr %3, null
  br i1 %tobool, label %if.then, label %if.end

if.then:                                          ; preds = %entry
  %4 = load i32, ptr %beginactive.addr, align 4
  %5 = load i32, ptr %nchannels.addr, align 4
  %mul2 = mul nsw i32 %4, %5
  %6 = load ptr, ptr %dresultds.addr, align 8
  %idx.ext3 = sext i32 %mul2 to i64
  %add.ptr4 = getelementptr inbounds float, ptr %6, i64 %idx.ext3
  store ptr %add.ptr4, ptr %dresultds.addr, align 8
  %7 = load i32, ptr %beginactive.addr, align 4
  %8 = load i32, ptr %nchannels.addr, align 4
  %mul5 = mul nsw i32 %7, %8
  %9 = load ptr, ptr %dresultdt.addr, align 8
  %idx.ext6 = sext i32 %mul5 to i64
  %add.ptr7 = getelementptr inbounds float, ptr %9, i64 %idx.ext6
  store ptr %add.ptr7, ptr %dresultdt.addr, align 8
  br label %if.end

if.end:                                           ; preds = %if.then, %entry
  %10 = load i32, ptr %beginactive.addr, align 4
  store i32 %10, ptr %i, align 4
  br label %for.cond

for.cond:                                         ; preds = %for.inc, %if.end
  %11 = load i32, ptr %i, align 4
  %12 = load i32, ptr %endactive.addr, align 4
  %cmp = icmp slt i32 %11, %12
  br i1 %cmp, label %for.body, label %for.end

for.body:                                         ; preds = %for.cond
  %13 = load ptr, ptr %runflags.addr, align 8
  %14 = load i32, ptr %i, align 4
  %idxprom = sext i32 %14 to i64
  %arrayidx = getelementptr inbounds i8, ptr %13, i64 %idxprom
  %15 = load i8, ptr %arrayidx, align 1
  %tobool8 = icmp ne i8 %15, 0
  br i1 %tobool8, label %if.then9, label %if.end24

if.then9:                                         ; preds = %for.body
  %16 = load ptr, ptr %options.addr, align 8
  %17 = load i32, ptr %i, align 4
  call void @_ZN18OpenImageIO_v2_6_010TextureOptC1ERKNS_14TextureOptionsEi(ptr noundef nonnull align 8 dereferenceable(104) %opt, ptr noundef nonnull align 8 dereferenceable(224) %16, i32 noundef %17)
  %18 = load ptr, ptr %texture_handle.addr, align 8
  %19 = load ptr, ptr %thread_info.addr, align 8
  %20 = load i32, ptr %i, align 4
  %call = invoke noundef nonnull align 4 dereferenceable(12) ptr @_ZNK18OpenImageIO_v2_6_010VaryingRefIN9Imath_2_54Vec3IfEEEixEi(ptr noundef nonnull align 8 dereferenceable(12) %P, i32 noundef %20)
          to label %invoke.cont unwind label %lpad

invoke.cont:                                      ; preds = %if.then9
  call void @_ZN18OpenImageIO_v2_6_09Vec3ParamIfEC2IN9Imath_2_54Vec3IfEETnNSt9enable_ifIXsr7has_xyzIT_fEE5valueEiE4typeELi0EEERKS7_(ptr noundef nonnull align 4 dereferenceable(12) %agg.tmp, ptr noundef nonnull align 4 dereferenceable(12) %call) #5
  %21 = load i32, ptr %i, align 4
  %call12 = invoke noundef nonnull align 4 dereferenceable(12) ptr @_ZNK18OpenImageIO_v2_6_010VaryingRefIN9Imath_2_54Vec3IfEEEixEi(ptr noundef nonnull align 8 dereferenceable(12) %dPdx, i32 noundef %21)
          to label %invoke.cont11 unwind label %lpad

invoke.cont11:                                    ; preds = %invoke.cont
  call void @_ZN18OpenImageIO_v2_6_09Vec3ParamIfEC2IN9Imath_2_54Vec3IfEETnNSt9enable_ifIXsr7has_xyzIT_fEE5valueEiE4typeELi0EEERKS7_(ptr noundef nonnull align 4 dereferenceable(12) %agg.tmp10, ptr noundef nonnull align 4 dereferenceable(12) %call12) #5
  %22 = load i32, ptr %i, align 4
  %call15 = invoke noundef nonnull align 4 dereferenceable(12) ptr @_ZNK18OpenImageIO_v2_6_010VaryingRefIN9Imath_2_54Vec3IfEEEixEi(ptr noundef nonnull align 8 dereferenceable(12) %dPdy, i32 noundef %22)
          to label %invoke.cont14 unwind label %lpad

invoke.cont14:                                    ; preds = %invoke.cont11
  call void @_ZN18OpenImageIO_v2_6_09Vec3ParamIfEC2IN9Imath_2_54Vec3IfEETnNSt9enable_ifIXsr7has_xyzIT_fEE5valueEiE4typeELi0EEERKS7_(ptr noundef nonnull align 4 dereferenceable(12) %agg.tmp13, ptr noundef nonnull align 4 dereferenceable(12) %call15) #5
  %23 = load i32, ptr %i, align 4
  %call18 = invoke noundef nonnull align 4 dereferenceable(12) ptr @_ZNK18OpenImageIO_v2_6_010VaryingRefIN9Imath_2_54Vec3IfEEEixEi(ptr noundef nonnull align 8 dereferenceable(12) %dPdz, i32 noundef %23)
          to label %invoke.cont17 unwind label %lpad

invoke.cont17:                                    ; preds = %invoke.cont14
  call void @_ZN18OpenImageIO_v2_6_09Vec3ParamIfEC2IN9Imath_2_54Vec3IfEETnNSt9enable_ifIXsr7has_xyzIT_fEE5valueEiE4typeELi0EEERKS7_(ptr noundef nonnull align 4 dereferenceable(12) %agg.tmp16, ptr noundef nonnull align 4 dereferenceable(12) %call18) #5
  %24 = load ptr, ptr %result.addr, align 8
  %25 = load ptr, ptr %dresultds.addr, align 8
  %26 = load ptr, ptr %dresultdt.addr, align 8
  %27 = load ptr, ptr %dresultdr.addr, align 8
  call void @llvm.memcpy.p0.p0.i64(ptr align 4 %agg.tmp.coerce, ptr align 4 %agg.tmp, i64 12, i1 false)
  %28 = getelementptr inbounds { <2 x float>, float }, ptr %agg.tmp.coerce, i32 0, i32 0
  %29 = load <2 x float>, ptr %28, align 4
  %30 = getelementptr inbounds { <2 x float>, float }, ptr %agg.tmp.coerce, i32 0, i32 1
  %31 = load float, ptr %30, align 4
  call void @llvm.memcpy.p0.p0.i64(ptr align 4 %agg.tmp10.coerce, ptr align 4 %agg.tmp10, i64 12, i1 false)
  %32 = getelementptr inbounds { <2 x float>, float }, ptr %agg.tmp10.coerce, i32 0, i32 0
  %33 = load <2 x float>, ptr %32, align 4
  %34 = getelementptr inbounds { <2 x float>, float }, ptr %agg.tmp10.coerce, i32 0, i32 1
  %35 = load float, ptr %34, align 4
  call void @llvm.memcpy.p0.p0.i64(ptr align 4 %agg.tmp13.coerce, ptr align 4 %agg.tmp13, i64 12, i1 false)
  %36 = getelementptr inbounds { <2 x float>, float }, ptr %agg.tmp13.coerce, i32 0, i32 0
  %37 = load <2 x float>, ptr %36, align 4
  %38 = getelementptr inbounds { <2 x float>, float }, ptr %agg.tmp13.coerce, i32 0, i32 1
  %39 = load float, ptr %38, align 4
  call void @llvm.memcpy.p0.p0.i64(ptr align 4 %agg.tmp16.coerce, ptr align 4 %agg.tmp16, i64 12, i1 false)
  %40 = getelementptr inbounds { <2 x float>, float }, ptr %agg.tmp16.coerce, i32 0, i32 0
  %41 = load <2 x float>, ptr %40, align 4
  %42 = getelementptr inbounds { <2 x float>, float }, ptr %agg.tmp16.coerce, i32 0, i32 1
  %43 = load float, ptr %42, align 4
  %call20 = invoke noundef zeroext i1 @_ZN18OpenImageIO_v2_6_03pvt17TextureSystemImpl9texture3dEPNS_13TextureSystem13TextureHandleEPNS2_9PerthreadERNS_10TextureOptENS_9Vec3ParamIfEESA_SA_SA_iPfSB_SB_SB_(ptr noundef nonnull align 8 dereferenceable(184) %this1, ptr noundef %18, ptr noundef %19, ptr noundef nonnull align 8 dereferenceable(104) %opt, <2 x float> %29, float %31, <2 x float> %33, float %35, <2 x float> %37, float %39, <2 x float> %41, float %43, i32 noundef 4, ptr noundef %24, ptr noundef %25, ptr noundef %26, ptr noundef %27)
          to label %invoke.cont19 unwind label %lpad

invoke.cont19:                                    ; preds = %invoke.cont17
  %conv = zext i1 %call20 to i32
  %44 = load i8, ptr %ok, align 1
  %tobool21 = trunc i8 %44 to i1
  %conv22 = zext i1 %tobool21 to i32
  %and = and i32 %conv22, %conv
  %tobool23 = icmp ne i32 %and, 0
  %frombool = zext i1 %tobool23 to i8
  store i8 %frombool, ptr %ok, align 1
  call void @_ZN18OpenImageIO_v2_6_010TextureOptD2Ev(ptr noundef nonnull align 8 dereferenceable(104) %opt) #5
  br label %if.end24

lpad:                                             ; preds = %invoke.cont17, %invoke.cont14, %invoke.cont11, %invoke.cont, %if.then9
  %45 = landingpad { ptr, i32 }
          cleanup
  %46 = extractvalue { ptr, i32 } %45, 0
  store ptr %46, ptr %exn.slot, align 8
  %47 = extractvalue { ptr, i32 } %45, 1
  store i32 %47, ptr %ehselector.slot, align 4
  call void @_ZN18OpenImageIO_v2_6_010TextureOptD2Ev(ptr noundef nonnull align 8 dereferenceable(104) %opt) #5
  br label %eh.resume

if.end24:                                         ; preds = %invoke.cont19, %for.body
  %48 = load i32, ptr %nchannels.addr, align 4
  %49 = load ptr, ptr %result.addr, align 8
  %idx.ext25 = sext i32 %48 to i64
  %add.ptr26 = getelementptr inbounds float, ptr %49, i64 %idx.ext25
  store ptr %add.ptr26, ptr %result.addr, align 8
  %50 = load ptr, ptr %dresultds.addr, align 8
  %tobool27 = icmp ne ptr %50, null
  br i1 %tobool27, label %if.then28, label %if.end35

if.then28:                                        ; preds = %if.end24
  %51 = load i32, ptr %nchannels.addr, align 4
  %52 = load ptr, ptr %dresultds.addr, align 8
  %idx.ext29 = sext i32 %51 to i64
  %add.ptr30 = getelementptr inbounds float, ptr %52, i64 %idx.ext29
  store ptr %add.ptr30, ptr %dresultds.addr, align 8
  %53 = load i32, ptr %nchannels.addr, align 4
  %54 = load ptr, ptr %dresultdt.addr, align 8
  %idx.ext31 = sext i32 %53 to i64
  %add.ptr32 = getelementptr inbounds float, ptr %54, i64 %idx.ext31
  store ptr %add.ptr32, ptr %dresultdt.addr, align 8
  %55 = load i32, ptr %nchannels.addr, align 4
  %56 = load ptr, ptr %dresultdr.addr, align 8
  %idx.ext33 = sext i32 %55 to i64
  %add.ptr34 = getelementptr inbounds float, ptr %56, i64 %idx.ext33
  store ptr %add.ptr34, ptr %dresultdr.addr, align 8
  br label %if.end35

if.end35:                                         ; preds = %if.then28, %if.end24
  br label %for.inc

for.inc:                                          ; preds = %if.end35
  %57 = load i32, ptr %i, align 4
  %inc = add nsw i32 %57, 1
  store i32 %inc, ptr %i, align 4
  br label %for.cond, !llvm.loop !10

for.end:                                          ; preds = %for.cond
  %58 = load i8, ptr %ok, align 1
  %tobool36 = trunc i8 %58 to i1
  ret i1 %tobool36

eh.resume:                                        ; preds = %lpad
  %exn = load ptr, ptr %exn.slot, align 8
  %sel = load i32, ptr %ehselector.slot, align 4
  %lpad.val = insertvalue { ptr, i32 } poison, ptr %exn, 0
  %lpad.val37 = insertvalue { ptr, i32 } %lpad.val, i32 %sel, 1
  resume { ptr, i32 } %lpad.val37
}