; Function Attrs: mustprogress uwtable
define hidden noundef zeroext i1 @_ZN18OpenImageIO_v2_6_03pvt17TextureSystemImpl9texture3dEPNS_13TextureSystem13TextureHandleEPNS2_9PerthreadERNS_14TextureOptionsEPhiiNS_10VaryingRefIN9Imath_2_54Vec3IfEEEESE_SE_SE_iPfSF_SF_SF_(ptr noundef nonnull align 8 dereferenceable(184) %this, ptr noundef %texture_handle, ptr noundef %thread_info, ptr noundef nonnull align 8 dereferenceable(224) %options, ptr nocapture noundef readonly %runflags, i32 noundef %beginactive, i32 noundef %endactive, ptr nocapture noundef readonly byval(%"class.OpenImageIO_v2_6_0::VaryingRef") align 8 %P, ptr nocapture noundef readonly byval(%"class.OpenImageIO_v2_6_0::VaryingRef") align 8 %dPdx, ptr nocapture noundef readonly byval(%"class.OpenImageIO_v2_6_0::VaryingRef") align 8 %dPdy, ptr nocapture noundef readonly byval(%"class.OpenImageIO_v2_6_0::VaryingRef") align 8 %dPdz, i32 noundef %nchannels, ptr noundef %result, ptr noundef %dresultds, ptr noundef %dresultdt, ptr noundef %dresultdr) unnamed_addr #5 align 2 personality ptr @__gxx_personality_v0 {
entry:
  %opt = alloca %"class.OpenImageIO_v2_6_0::TextureOpt", align 8
  %cmp56 = icmp slt i32 %beginactive, %endactive
  br i1 %cmp56, label %for.body.lr.ph, label %for.end

for.body.lr.ph:                                   ; preds = %entry
  %tobool.not = icmp eq ptr %dresultds, null
  %mul = mul nsw i32 %nchannels, %beginactive
  %idx.ext = sext i32 %mul to i64
  %add.ptr4 = getelementptr inbounds float, ptr %dresultds, i64 %idx.ext
  %dresultds.addr.0 = select i1 %tobool.not, ptr null, ptr %add.ptr4
  %dresultdt.addr.0.idx = select i1 %tobool.not, i64 0, i64 %idx.ext
  %dresultdt.addr.0 = getelementptr inbounds float, ptr %dresultdt, i64 %dresultdt.addr.0.idx
  %add.ptr = getelementptr inbounds float, ptr %result, i64 %idx.ext
  %m_step.i = getelementptr inbounds i8, ptr %P, i64 8
  %idx.ext25 = sext i32 %nchannels to i64
  %0 = sext i32 %beginactive to i64
  br label %for.body

for.body:                                         ; preds = %for.body.lr.ph, %if.end24
  %indvars.iv = phi i64 [ %0, %for.body.lr.ph ], [ %indvars.iv.next, %if.end24 ]
  %result.addr.062 = phi ptr [ %add.ptr, %for.body.lr.ph ], [ %add.ptr26, %if.end24 ]
  %dresultds.addr.161 = phi ptr [ %dresultds.addr.0, %for.body.lr.ph ], [ %dresultds.addr.2, %if.end24 ]
  %dresultdt.addr.160 = phi ptr [ %dresultdt.addr.0, %for.body.lr.ph ], [ %dresultdt.addr.2, %if.end24 ]
  %dresultdr.addr.059 = phi ptr [ %dresultdr, %for.body.lr.ph ], [ %dresultdr.addr.1, %if.end24 ]
  %ok.058 = phi i8 [ 1, %for.body.lr.ph ], [ %ok.1, %if.end24 ]
  %arrayidx = getelementptr inbounds i8, ptr %runflags, i64 %indvars.iv
  %1 = load i8, ptr %arrayidx, align 1
  %tobool8.not = icmp eq i8 %1, 0
  br i1 %tobool8.not, label %if.end24, label %if.then9

if.then9:                                         ; preds = %for.body
  %2 = trunc i64 %indvars.iv to i32
  call void @_ZN18OpenImageIO_v2_6_010TextureOptC1ERKNS_14TextureOptionsEi(ptr noundef nonnull align 8 dereferenceable(104) %opt, ptr noundef nonnull align 8 dereferenceable(224) %options, i32 noundef %2)
  %3 = load ptr, ptr %P, align 8
  %4 = load i32, ptr %m_step.i, align 8
  %5 = sext i32 %4 to i64
  %6 = mul nsw i64 %indvars.iv, %5
  %add.ptr.i = getelementptr inbounds i8, ptr %3, i64 %6
  %7 = load <2 x float>, ptr %add.ptr.i, align 4
  %z4.i = getelementptr inbounds i8, ptr %add.ptr.i, i64 8
  %8 = load float, ptr %z4.i, align 4
  %call20 = call noundef zeroext i1 @_ZN18OpenImageIO_v2_6_03pvt17TextureSystemImpl9texture3dEPNS_13TextureSystem13TextureHandleEPNS2_9PerthreadERNS_10TextureOptENS_9Vec3ParamIfEESA_SA_SA_iPfSB_SB_SB_(ptr noundef nonnull align 8 dereferenceable(184) %this, ptr noundef %texture_handle, ptr noundef %thread_info, ptr noundef nonnull align 8 dereferenceable(104) %opt, <2 x float> %7, float %8, <2 x float> poison, float poison, <2 x float> poison, float poison, <2 x float> poison, float poison, i32 noundef 4, ptr noundef %result.addr.062, ptr noundef %dresultds.addr.161, ptr noundef %dresultdt.addr.160, ptr noundef %dresultdr.addr.059)
  %9 = and i8 %ok.058, 1
  %tobool2327 = icmp ne i8 %9, 0
  %tobool23 = select i1 %call20, i1 %tobool2327, i1 false
  %frombool = zext i1 %tobool23 to i8
  br label %if.end24

if.end24:                                         ; preds = %if.then9, %for.body
  %ok.1 = phi i8 [ %frombool, %if.then9 ], [ %ok.058, %for.body ]
  %add.ptr26 = getelementptr inbounds float, ptr %result.addr.062, i64 %idx.ext25
  %tobool27.not = icmp eq ptr %dresultds.addr.161, null
  %add.ptr30 = getelementptr inbounds float, ptr %dresultds.addr.161, i64 %idx.ext25
  %dresultdr.addr.1.idx = select i1 %tobool27.not, i64 0, i64 %idx.ext25
  %dresultdr.addr.1 = getelementptr inbounds float, ptr %dresultdr.addr.059, i64 %dresultdr.addr.1.idx
  %dresultdt.addr.2 = getelementptr inbounds float, ptr %dresultdt.addr.160, i64 %dresultdr.addr.1.idx
  %dresultds.addr.2 = select i1 %tobool27.not, ptr null, ptr %add.ptr30
  %indvars.iv.next = add nsw i64 %indvars.iv, 1
  %lftr.wideiv = trunc i64 %indvars.iv.next to i32
  %exitcond.not = icmp eq i32 %lftr.wideiv, %endactive
  br i1 %exitcond.not, label %for.end.loopexit, label %for.body, !llvm.loop !18

for.end.loopexit:                                 ; preds = %if.end24
  %10 = and i8 %ok.1, 1
  %11 = icmp ne i8 %10, 0
  br label %for.end

for.end:                                          ; preds = %for.end.loopexit, %entry
  %ok.0.lcssa = phi i1 [ true, %entry ], [ %11, %for.end.loopexit ]
  ret i1 %ok.0.lcssa
}